csympy.matrices.immutable
ImmutableDenseMatrix
p0
(csympy.core.numbers
One
p1
(I1
tp2
Rp3
(dp4
bcsympy.core.numbers
Integer
p5
(I2
tp6
Rp7
(dp8
bcsympy.core.containers
Tuple
p9
(csympy.core.add
Add
p10
(csympy.core.numbers
Float
p11
((I1
S'4fL'
p12
I-6
I7
tp13
tp14
Rp15
(dp16
S'_prec'
p17
I7
sbcsympy.core.mul
Mul
p18
(g11
((I0
S'63L'
p19
I-5
I7
tp20
tp21
Rp22
(dp23
g17
I7
sbcsympy.functions.elementary.miscellaneous
Max
p24
(csympy.core.numbers
Zero
p25
(I0
tp26
Rp27
(dp28
bg10
(g11
((I0
S'57L'
p29
I-11
I7
tp30
tp31
Rp32
(dp33
g17
I7
sbg18
(g11
((I1
S'61L'
p34
I-17
I7
tp35
tp36
Rp37
(dp38
g17
I7
sbcsympy.core.symbol
Symbol
p39
(S'y'
p40
tp41
Rp42
(dp43
S'_assumptions'
p44
ccopy_reg
_reconstructor
p45
(csympy.core.assumptions
StdFactKB
p46
c__builtin__
dict
p47
(dp48
S'polar'
p49
NsS'commutative'
p50
I01
sS'antihermitian'
p51
NsS'nonpositive'
p52
NsS'positive'
p53
NsS'negative'
p54
NsS'nonnegative'
p55
NsS'hermitian'
p56
NsS'complex'
p57
NsS'infinite'
p58
NsS'finite'
p59
NsS'zero'
p60
Nstp61
Rp62
(dp63
S'_generator'
p64
(dp65
sbsbtp66
Rp67
(dp68
bg18
(g11
((I1
S'7bL'
p69
I-11
I7
tp70
tp71
Rp72
(dp73
g17
I7
sbg39
(S'x'
p74
tp75
Rp76
(dp77
g44
g45
(g46
g47
(dp78
S'real'
p79
Nsg49
NsS'irrational'
p80
Nsg51
Nsg52
NsS'algebraic'
p81
Nsg56
Nsg58
NsS'integer'
p82
NsS'imaginary'
p83
NsS'even'
p84
Nsg50
I01
sg60
Nsg53
Nsg54
Nsg55
Nsg57
NsS'rational'
p85
Nsg59
Nstp86
Rp87
(dp88
g64
(dp89
sbsbtp90
Rp91
(dp92
btp93
Rp94
(dp95
btp96
Rp97
(dp98
btp99
Rp100
(dp101
bg18
(g11
((I0
S'7bL'
p102
I-5
I7
tp103
tp104
Rp105
(dp106
g17
I7
sbg24
(g27
g10
(g11
((I0
S'57L'
p107
I-11
I7
tp108
tp109
Rp110
(dp111
g17
I7
sbg18
(g11
((I1
S'49L'
p112
I-8
I7
tp113
tp114
Rp115
(dp116
g17
I7
sbg42
tp117
Rp118
(dp119
bg18
(g11
((I1
S'51L'
p120
I-11
I7
tp121
tp122
Rp123
(dp124
g17
I7
sbg76
tp125
Rp126
(dp127
btp128
Rp129
(dp130
btp131
Rp132
(dp133
btp134
Rp135
(dp136
btp137
Rp138
(dp139
bg10
(g11
((I0
S'4fL'
p140
I-6
I7
tp141
tp142
Rp143
(dp144
g17
I7
sbg18
(g11
((I1
S'45L'
p145
I-5
I7
tp146
tp147
Rp148
(dp149
g17
I7
sbg24
g131
Rp150
(dp151
btp152
Rp153
(dp154
bg18
(g11
((I1
S'5dL'
p155
I-5
I7
tp156
tp157
Rp158
(dp159
g17
I7
sbg24
g96
Rp160
(dp161
btp162
Rp163
(dp164
btp165
Rp166
(dp167
btp168
Rp169
(dp170
btp171
Rp172
(dp173
b.